; Function Attrs: mustprogress uwtable
define void @_ZN2cv9videostab15VideoFileSourceC2ERKNSt7__cxx1112basic_stringIcSt11char_traitsIcESaIcEEEb(ptr nocapture noundef nonnull writeonly align 8 dereferenceable(24) %0, ptr noundef nonnull align 8 dereferenceable(32) %1, i1 noundef zeroext %2) unnamed_addr #3 align 2 personality ptr @__gxx_personality_v0 {
  store ptr getelementptr inbounds inrange(-16, 32) (i8, ptr @_ZTVN2cv9videostab15VideoFileSourceE, i64 16), ptr %0, align 8
  %4 = getelementptr inbounds i8, ptr %0, i64 8
  %5 = tail call noalias noundef nonnull dereferenceable(96) ptr @_Znwm(i64 noundef 96) #12
  store ptr getelementptr inbounds inrange(-16, 32) (i8, ptr @_ZTVN2cv9videostab12_GLOBAL__N_119VideoFileSourceImplE, i64 16), ptr %5, align 8
  %6 = getelementptr inbounds i8, ptr %5, i64 8
  invoke void @_ZNSt7__cxx1112basic_stringIcSt11char_traitsIcESaIcEEC1ERKS4_(ptr noundef nonnull align 8 dereferenceable(32) %6, ptr noundef nonnull align 8 dereferenceable(32) %1)
          to label %.noexc unwind label %38

.noexc:                                           ; preds = %3
  %7 = zext i1 %2 to i8
  %8 = getelementptr inbounds i8, ptr %5, i64 40
  store i8 %7, ptr %8, align 8
  %9 = getelementptr inbounds i8, ptr %5, i64 48
  invoke void @_ZN2cv12VideoCaptureC1Ev(ptr noundef nonnull align 8 dereferenceable(41) %9)
          to label %10 unwind label %14

10:                                               ; preds = %.noexc
  %11 = load ptr, ptr %5, align 8
  %12 = getelementptr inbounds i8, ptr %11, i64 16
  %13 = load ptr, ptr %12, align 8
  invoke void %13(ptr noundef nonnull align 8 dereferenceable(96) %5)
          to label %_ZN2cv9videostab12_GLOBAL__N_119VideoFileSourceImplC2ERKNSt7__cxx1112basic_stringIcSt11char_traitsIcESaIcEEEb.exit unwind label %16

14:                                               ; preds = %.noexc
  %15 = landingpad { ptr, i32 }
          cleanup
  br label %18

16:                                               ; preds = %10
  %17 = landingpad { ptr, i32 }
          cleanup
  tail call void @_ZN2cv12VideoCaptureD1Ev(ptr noundef nonnull align 8 dereferenceable(41) %9) #13
  br label %18

18:                                               ; preds = %16, %14
  %.pn.i = phi { ptr, i32 } [ %17, %16 ], [ %15, %14 ]
  tail call void @_ZNSt7__cxx1112basic_stringIcSt11char_traitsIcESaIcEED1Ev(ptr noundef nonnull align 8 dereferenceable(32) %6) #13
  br label %.body

_ZN2cv9videostab12_GLOBAL__N_119VideoFileSourceImplC2ERKNSt7__cxx1112basic_stringIcSt11char_traitsIcESaIcEEEb.exit: ; preds = %10
  store ptr %5, ptr %4, align 8
  %19 = getelementptr inbounds i8, ptr %0, i64 16
  store ptr null, ptr %19, align 8
  %20 = invoke noalias noundef nonnull dereferenceable(24) ptr @_Znwm(i64 noundef 24) #12
          to label %34 unwind label %21

21:                                               ; preds = %_ZN2cv9videostab12_GLOBAL__N_119VideoFileSourceImplC2ERKNSt7__cxx1112basic_stringIcSt11char_traitsIcESaIcEEEb.exit
  %22 = landingpad { ptr, i32 }
          catch ptr null
  %23 = extractvalue { ptr, i32 } %22, 0
  %24 = tail call ptr @__cxa_begin_catch(ptr %23) #13
  %25 = load ptr, ptr %5, align 8
  %26 = getelementptr inbounds i8, ptr %25, i64 8
  %27 = load ptr, ptr %26, align 8
  tail call void %27(ptr noundef nonnull align 8 dereferenceable(96) %5) #13
  invoke void @__cxa_rethrow() #14
          to label %33 unwind label %28

28:                                               ; preds = %21
  %29 = landingpad { ptr, i32 }
          cleanup
  invoke void @__cxa_end_catch()
          to label %.body6 unwind label %30

30:                                               ; preds = %28
  %31 = landingpad { ptr, i32 }
          catch ptr null
  %32 = extractvalue { ptr, i32 } %31, 0
  tail call void @__clang_call_terminate(ptr %32) #15
  unreachable

33:                                               ; preds = %21
  unreachable

34:                                               ; preds = %_ZN2cv9videostab12_GLOBAL__N_119VideoFileSourceImplC2ERKNSt7__cxx1112basic_stringIcSt11char_traitsIcESaIcEEEb.exit
  %35 = getelementptr inbounds i8, ptr %20, i64 8
  store i32 1, ptr %35, align 8
  %36 = getelementptr inbounds i8, ptr %20, i64 12
  store i32 1, ptr %36, align 4
  store ptr getelementptr inbounds inrange(-16, 40) (i8, ptr @_ZTVSt15_Sp_counted_ptrIPN2cv9videostab12_GLOBAL__N_119VideoFileSourceImplELN9__gnu_cxx12_Lock_policyE2EE, i64 16), ptr %20, align 8
  %37 = getelementptr inbounds i8, ptr %20, i64 16
  store ptr %5, ptr %37, align 8
  store ptr %20, ptr %19, align 8
  ret void

38:                                               ; preds = %3
  %39 = landingpad { ptr, i32 }
          cleanup
  br label %.body

.body:                                            ; preds = %18, %38
  %eh.lpad-body = phi { ptr, i32 } [ %39, %38 ], [ %.pn.i, %18 ]
  tail call void @_ZdlPv(ptr noundef nonnull %5) #16
  br label %.body6

.body6:                                           ; preds = %28, %.body
  %.pn = phi { ptr, i32 } [ %eh.lpad-body, %.body ], [ %29, %28 ]
  resume { ptr, i32 } %.pn
}